	.file	"GameApplication.cpp"
	.gnu_attribute 4, 1
	.gnu_attribute 8, 1
	.gnu_attribute 12, 1
	.section	".text"
.Ltext0:
	.align 2
	.globl _ZN15GameApplication11OnTerminateEv
	.type	_ZN15GameApplication11OnTerminateEv, @function
_ZN15GameApplication11OnTerminateEv:
.LFB655:
	.file 1 "/home/pete/code/liiner/src/GameApplication.cpp"
	.loc 1 63 0
	.cfi_startproc
.LVL0:
	.loc 1 64 0
	blr
	.cfi_endproc
.LFE655:
	.size	_ZN15GameApplication11OnTerminateEv, .-_ZN15GameApplication11OnTerminateEv
	.align 2
	.globl _ZN15GameApplication6OnIdleEv
	.type	_ZN15GameApplication6OnIdleEv, @function
_ZN15GameApplication6OnIdleEv:
.LFB656:
	.loc 1 67 0
	.cfi_startproc
.LVL1:
	mflr 0
	stwu 1,-56(1)
.LCFI0:
	.cfi_def_cfa_offset 56
	stw 29,44(1)
	lis 29,.LC0@ha
	.cfi_offset 29, -12
	.cfi_register 65, 0
	stw 0,60(1)
	stw 30,48(1)
	mr 30,3
	.cfi_offset 30, -8
	.cfi_offset 65, 4
	stw 31,52(1)
	.loc 1 70 0
	li 31,0
	.cfi_offset 31, -4
.LVL2:
.L5:
.LBB82:
.LBB111:
.LBB112:
	.loc 1 72 0
	mr 3,31
	bl WPAD_ButtonsHeld
.LVL3:
	.loc 1 78 0
	andi. 0,3,256
	.loc 1 82 0
	rlwinm 0,3,23,31,31
	cmpwi 7,0,0
	.loc 1 78 0
	beq- 0,.L3
.LVL4:
	.loc 1 80 0
	lfs 13,60(30)
	lfs 0,.LC0@l(29)
	fsubs 0,13,0
.LBB113:
.LBB114:
	.file 2 "/home/pete/code/wire3d/Wire/Foundation/Wii/WireVector3Wii.inl"
	.loc 2 85 0
	stfs 0,60(30)
.LVL5:
.L4:
.LBE114:
.LBE113:
.LBE112:
	.loc 1 70 0
	cmpwi 7,31,1
	addi 31,31,1
.LVL6:
	bne- 7,.L5
.LVL7:
.LBE111:
.LBB106:
.LBB108:
	.loc 2 22 0
	lis 9,.LC1@ha
.LBE108:
.LBE106:
.LBB102:
.LBB104:
	.loc 2 21 0
	lwz 0,.LC0@l(29)
.LBE104:
.LBE102:
.LBB101:
.LBB109:
	.loc 2 22 0
	lwz 9,.LC1@l(9)
	.loc 2 20 0
	li 31,0
.LVL8:
.LBE109:
.LBE101:
	.loc 1 107 0
	lwz 3,56(30)
.LVL9:
	addi 6,1,20
	addi 5,1,8
	addi 4,30,60
.LBB100:
.LBB107:
	.loc 2 22 0
	stw 9,16(1)
.LVL10:
.LBE107:
.LBE100:
.LBB99:
.LBB103:
	.loc 2 21 0
	stw 0,24(1)
.LBE103:
.LBE99:
.LBB98:
.LBB110:
	.loc 2 20 0
	stw 31,8(1)
	.loc 2 21 0
	stw 31,12(1)
.LBE110:
.LBE98:
.LBB97:
.LBB105:
	.loc 2 20 0
	stw 31,20(1)
	.loc 2 22 0
	stw 31,28(1)
.LVL11:
.LBE105:
.LBE97:
	.loc 1 107 0
	bl _ZN4Wire6Camera6LookAtERKNS_7Vector3IfEES4_S4_
.LVL12:
	.loc 1 125 0
	lwz 29,8(30)
	.loc 1 110 0
	mr 3,29
	bl _ZN4Wire8Renderer12ClearBuffersEv
.LVL13:
	.loc 1 111 0
	lwz 4,56(30)
	mr 3,29
	bl _ZN4Wire8Renderer7PreDrawEPNS_6CameraE
	.loc 1 116 0
	li 4,0
	li 5,2
	li 3,168
	bl GX_Begin
.LVL14:
.LBB92:
.LBB94:
	.file 3 "/opt/devkitpro//libogc/include/ogc/gx.h"
	.loc 3 2096 0
	lis 11,.LC2@ha
.LBE94:
.LBE92:
.LBB88:
.LBB90:
	lis 9,wgPipe@ha
.LBE90:
.LBE88:
.LBB87:
.LBB95:
	lwz 0,.LC2@l(11)
.LBE95:
.LBE87:
.LBB86:
.LBB89:
	lwz 9,wgPipe@l(9)
.LBE89:
.LBE86:
.LBB85:
.LBB93:
	.loc 3 2097 0
	lis 11,.LC3@ha
.LBE93:
.LBE85:
	.loc 1 122 0
	mr 3,29
.LBB84:
.LBB91:
	.loc 3 2096 0
	stw 31,0(9)
	.loc 3 2097 0
	stw 31,0(9)
	.loc 3 2098 0
	stw 31,0(9)
.LVL15:
.LBE91:
.LBE84:
.LBB83:
.LBB96:
	.loc 3 2096 0
	stw 0,0(9)
	.loc 3 2097 0
	lwz 0,.LC3@l(11)
	stw 0,0(9)
	.loc 3 2098 0
	stw 31,0(9)
.LBE96:
.LBE83:
	.loc 1 122 0
	bl _ZN4Wire8Renderer8PostDrawEv
	.loc 1 123 0
	mr 3,29
	bl _ZN4Wire8Renderer17DisplayBackBufferEv
.LBE82:
	.loc 1 125 0
	lwz 0,60(1)
	lwz 29,44(1)
	mtlr 0
	lwz 30,48(1)
.LVL16:
	lwz 31,52(1)
	addi 1,1,56
	.cfi_remember_state
.LCFI1:
	.cfi_def_cfa_offset 0
	.cfi_restore 31
	.cfi_restore 30
	.cfi_restore 29
	blr
.LVL17:
.L3:
.LCFI2:
	.cfi_restore_state
.LBB119:
.LBB118:
.LBB117:
	.loc 1 82 0
	beq- 7,.L4
.LVL18:
	.loc 1 84 0
	lfs 13,60(30)
	lfs 0,.LC0@l(29)
	fadds 0,13,0
.LBB115:
.LBB116:
	.loc 2 85 0
	stfs 0,60(30)
	b .L4
.LBE116:
.LBE115:
.LBE117:
.LBE118:
.LBE119:
	.cfi_endproc
.LFE656:
	.size	_ZN15GameApplication6OnIdleEv, .-_ZN15GameApplication6OnIdleEv
	.align 2
	.globl _ZN15GameApplication11OnPrecreateEv
	.type	_ZN15GameApplication11OnPrecreateEv, @function
_ZN15GameApplication11OnPrecreateEv:
.LFB653:
	.loc 1 17 0
	.cfi_startproc
.LVL19:
	mflr 0
	stwu 1,-8(1)
.LCFI3:
	.cfi_def_cfa_offset 8
	stw 0,12(1)
	.loc 1 23 0
	.cfi_offset 65, 4
	bl _ZN4Wire13GXApplication11OnPrecreateEv
.LVL20:
	.loc 1 29 0
	lwz 0,12(1)
	addi 1,1,8
.LCFI4:
	.cfi_def_cfa_offset 0
	mtlr 0
	blr
	.cfi_endproc
.LFE653:
	.size	_ZN15GameApplication11OnPrecreateEv, .-_ZN15GameApplication11OnPrecreateEv
	.align 2
	.globl _ZN15GameApplication10InitializeEv
	.type	_ZN15GameApplication10InitializeEv, @function
_ZN15GameApplication10InitializeEv:
.LFB648:
	.loc 1 14 0
	.cfi_startproc
	.cfi_personality 0x0,__gxx_personality_v0
	.cfi_lsda 0x0,.LLSDA648
	mflr 0
	stwu 1,-16(1)
.LCFI5:
	.cfi_def_cfa_offset 16
	li 3,72
	stw 31,12(1)
	stw 0,20(1)
	stw 30,8(1)
.LEHB0:
	.loc 1 14 0
	.cfi_offset 30, -8
	.cfi_offset 31, -4
	.cfi_offset 65, 4
	bl _Znwj
.LEHE0:
.LBB131:
.LBB133:
	.file 4 "/home/pete/code/liiner/src/GameApplication.h"
	.loc 4 21 0
	lis 4,_ZN4Wire9ColorRGBA5BLACKE@ha
	li 5,0
	la 4,_ZN4Wire9ColorRGBA5BLACKE@l(4)
	li 6,0
	li 7,0
	li 8,640
	li 9,480
	li 10,1
.LBE133:
.LBE131:
	.loc 1 14 0
	mr 31,3
.LVL21:
.LEHB1:
.LBB141:
.LBB132:
	.loc 4 21 0
	bl _ZN4Wire13GXApplicationC2ERKNS_9ColorRGBAEPKciijjb
.LEHE1:
.LVL22:
	lis 9,_ZTV15GameApplication+8@ha
.LBB137:
.LBB138:
	.file 5 "/home/pete/code/wire3d/Wire/Engine/WireSmartPointer.inl"
	.loc 5 13 0
	li 0,0
.LBE138:
.LBE137:
	.loc 4 21 0
	la 9,_ZTV15GameApplication+8@l(9)
.LBB136:
.LBB139:
	.loc 5 13 0
	stw 0,52(31)
.LBE139:
.LBE136:
.LBB134:
.LBB135:
	stw 0,56(31)
.LBE135:
.LBE134:
.LBE132:
.LBE141:
	.loc 1 14 0
	mr 3,31
.LBB142:
.LBB140:
	.loc 4 21 0
	stw 9,0(31)
.LVL23:
.LEHB2:
.LBE140:
.LBE142:
	.loc 1 14 0
	bl _ZN4Wire11Application14SetApplicationEPS0_
	lwz 0,20(1)
	lwz 30,8(1)
	mtlr 0
	lwz 31,12(1)
.LVL24:
	addi 1,1,16
	.cfi_remember_state
.LCFI6:
	.cfi_def_cfa_offset 0
	.cfi_restore 31
	.cfi_restore 30
	blr
.LVL25:
.L11:
.LCFI7:
	.cfi_restore_state
	mr 30,3
	mr 3,31
	bl _ZdlPv
	mr 3,30
	bl _Unwind_Resume
.LEHE2:
	.cfi_endproc
.LFE648:
	.size	_ZN15GameApplication10InitializeEv, .-_ZN15GameApplication10InitializeEv
	.globl __gxx_personality_v0
	.section	.gcc_except_table,"a",@progbits
.LLSDA648:
	.byte	0xff
	.byte	0xff
	.byte	0x1
	.uleb128 .LLSDACSE648-.LLSDACSB648
.LLSDACSB648:
	.uleb128 .LEHB0-.LFB648
	.uleb128 .LEHE0-.LEHB0
	.uleb128 0x0
	.uleb128 0x0
	.uleb128 .LEHB1-.LFB648
	.uleb128 .LEHE1-.LEHB1
	.uleb128 .L11-.LFB648
	.uleb128 0x0
	.uleb128 .LEHB2-.LFB648
	.uleb128 .LEHE2-.LEHB2
	.uleb128 0x0
	.uleb128 0x0
.LLSDACSE648:
	.section	".text"
	.align 2
	.globl _ZN15GameApplication18RegisterInitializeEv
	.type	_ZN15GameApplication18RegisterInitializeEv, @function
_ZN15GameApplication18RegisterInitializeEv:
.LFB647:
	.loc 1 14 0
	.cfi_startproc
	stwu 1,-16(1)
.LCFI8:
	.cfi_def_cfa_offset 16
	mflr 0
	stw 31,12(1)
	lis 31,_ZN15GameApplication22s_InitializeRegisteredE@ha
	.cfi_offset 31, -4
	.cfi_register 65, 0
	lbz 3,_ZN15GameApplication22s_InitializeRegisteredE@l(31)
	stw 0,20(1)
	.loc 1 14 0
	cmpwi 7,3,0
	bne+ 7,.L13
	.cfi_offset 65, 4
	.loc 1 14 0 is_stmt 0 discriminator 1
	lis 3,_ZN15GameApplication10InitializeEv@ha
	la 3,_ZN15GameApplication10InitializeEv@l(3)
	bl _ZN4Wire4Main14AddInitializerEPFvvE
	li 0,1
	stb 0,_ZN15GameApplication22s_InitializeRegisteredE@l(31)
	li 3,1
.L13:
	.loc 1 14 0 discriminator 2
	lwz 0,20(1)
	lwz 31,12(1)
	addi 1,1,16
.LCFI9:
	.cfi_def_cfa_offset 0
	.cfi_restore 31
	mtlr 0
	blr
	.cfi_endproc
.LFE647:
	.size	_ZN15GameApplication18RegisterInitializeEv, .-_ZN15GameApplication18RegisterInitializeEv
	.globl __eabi
	.align 2
	.globl main
	.type	main, @function
main:
.LFB652:
	.loc 1 14 0 is_stmt 1
	.cfi_startproc
.LVL26:
	mflr 0
	stwu 1,-24(1)
.LCFI10:
	.cfi_def_cfa_offset 24
	stw 29,12(1)
	mr 29,3
	.cfi_offset 29, -12
	.cfi_register 65, 0
	stw 0,28(1)
	stw 30,16(1)
	mr 30,4
	.cfi_offset 30, -8
	.cfi_offset 65, 4
	stw 31,20(1)
	.loc 1 14 0
	.cfi_offset 31, -4
	bl __eabi
.LVL27:
.LBB143:
	bl _ZN4Wire4Main10InitializeEv
	bl _ZN4Wire11Application14GetApplicationEv
.LVL28:
	mr. 31,3
	beq- 0,.L15
	.loc 1 14 0 is_stmt 0 discriminator 1
	lwz 9,0(31)
	mr 4,29
	mr 5,30
	lwz 0,8(9)
	mtctr 0
	bctrl
.LVL29:
	lwz 9,0(31)
	mr 3,31
	lwz 0,4(9)
	mtctr 0
	bctrl
	li 3,0
	bl _ZN4Wire11Application14SetApplicationEPS0_
.L15:
	.loc 1 14 0 discriminator 2
	bl _ZN4Wire4Main9TerminateEv
.LBE143:
	lwz 0,28(1)
	li 3,0
	lwz 29,12(1)
.LVL30:
	mtlr 0
	lwz 30,16(1)
.LVL31:
	lwz 31,20(1)
.LVL32:
	addi 1,1,24
.LCFI11:
	.cfi_def_cfa_offset 0
	.cfi_restore 31
	.cfi_restore 30
	.cfi_restore 29
	blr
	.cfi_endproc
.LFE652:
	.size	main, .-main
	.section	.text._ZN4Wire7PointerINS_6CameraEEaSEPS1_,"axG",@progbits,_ZN4Wire7PointerINS_6CameraEEaSEPS1_,comdat
	.align 2
	.weak	_ZN4Wire7PointerINS_6CameraEEaSEPS1_
	.type	_ZN4Wire7PointerINS_6CameraEEaSEPS1_, @function
_ZN4Wire7PointerINS_6CameraEEaSEPS1_:
.LFB708:
	.loc 5 71 0 is_stmt 1
	.cfi_startproc
.LVL33:
	mflr 0
	stwu 1,-16(1)
.LCFI12:
	.cfi_def_cfa_offset 16
	stw 31,12(1)
	mr 31,3
	.cfi_offset 31, -4
	.cfi_register 65, 0
	stw 0,20(1)
	stw 30,8(1)
	.loc 5 71 0
	mr 30,4
	.cfi_offset 30, -8
	.cfi_offset 65, 4
	.loc 5 73 0
	lwz 3,0(3)
.LVL34:
	cmpw 7,3,4
	beq- 7,.L17
	.loc 5 75 0
	cmpwi 7,4,0
	beq- 7,.L18
.LBB144:
.LBB145:
	.file 6 "/home/pete/code/wire3d/Wire/Engine/WireObject.inl"
	.loc 6 14 0
	lwz 9,4(4)
	addi 0,9,1
	stw 0,4(4)
.L18:
.LBE145:
.LBE144:
	.loc 5 80 0
	cmpwi 7,3,0
	beq- 7,.L19
	.loc 5 82 0
	bl _ZN4Wire6Object19DecrementReferencesEv
.LVL35:
.L19:
	.loc 5 85 0
	stw 30,0(31)
.L17:
	.loc 5 89 0
	lwz 0,20(1)
	mr 3,31
	lwz 30,8(1)
.LVL36:
	mtlr 0
	lwz 31,12(1)
.LVL37:
	addi 1,1,16
.LCFI13:
	.cfi_def_cfa_offset 0
	.cfi_restore 31
	.cfi_restore 30
	blr
	.cfi_endproc
.LFE708:
	.size	_ZN4Wire7PointerINS_6CameraEEaSEPS1_, .-_ZN4Wire7PointerINS_6CameraEEaSEPS1_
	.section	.text._ZN4Wire7PointerINS_8GeometryEED2Ev,"axG",@progbits,_ZN4Wire7PointerINS_8GeometryEED5Ev,comdat
	.align 2
	.weak	_ZN4Wire7PointerINS_8GeometryEED2Ev
	.type	_ZN4Wire7PointerINS_8GeometryEED2Ev, @function
_ZN4Wire7PointerINS_8GeometryEED2Ev:
.LFB722:
	.loc 5 33 0
	.cfi_startproc
.LVL38:
	mflr 0
	stwu 1,-8(1)
.LCFI14:
	.cfi_def_cfa_offset 8
	stw 0,12(1)
.LBB146:
	.loc 5 35 0
	lwz 3,0(3)
.LVL39:
	cmpwi 7,3,0
	beq- 7,.L20
	.cfi_offset 65, 4
	.loc 5 37 0
	bl _ZN4Wire6Object19DecrementReferencesEv
.L20:
.LBE146:
	.loc 5 39 0
	lwz 0,12(1)
	addi 1,1,8
.LCFI15:
	.cfi_def_cfa_offset 0
	mtlr 0
	blr
	.cfi_endproc
.LFE722:
	.size	_ZN4Wire7PointerINS_8GeometryEED2Ev, .-_ZN4Wire7PointerINS_8GeometryEED2Ev
	.weak	_ZN4Wire7PointerINS_8GeometryEED1Ev
	.set	_ZN4Wire7PointerINS_8GeometryEED1Ev,_ZN4Wire7PointerINS_8GeometryEED2Ev
	.section	.text._ZN4Wire7PointerINS_6CameraEED2Ev,"axG",@progbits,_ZN4Wire7PointerINS_6CameraEED5Ev,comdat
	.align 2
	.weak	_ZN4Wire7PointerINS_6CameraEED2Ev
	.type	_ZN4Wire7PointerINS_6CameraEED2Ev, @function
_ZN4Wire7PointerINS_6CameraEED2Ev:
.LFB728:
	.loc 5 33 0
	.cfi_startproc
.LVL40:
	mflr 0
	stwu 1,-8(1)
.LCFI16:
	.cfi_def_cfa_offset 8
	stw 0,12(1)
.LBB147:
	.loc 5 35 0
	lwz 3,0(3)
.LVL41:
	cmpwi 7,3,0
	beq- 7,.L22
	.cfi_offset 65, 4
	.loc 5 37 0
	bl _ZN4Wire6Object19DecrementReferencesEv
.L22:
.LBE147:
	.loc 5 39 0
	lwz 0,12(1)
	addi 1,1,8
.LCFI17:
	.cfi_def_cfa_offset 0
	mtlr 0
	blr
	.cfi_endproc
.LFE728:
	.size	_ZN4Wire7PointerINS_6CameraEED2Ev, .-_ZN4Wire7PointerINS_6CameraEED2Ev
	.weak	_ZN4Wire7PointerINS_6CameraEED1Ev
	.set	_ZN4Wire7PointerINS_6CameraEED1Ev,_ZN4Wire7PointerINS_6CameraEED2Ev
	.section	.text._ZN15GameApplicationD2Ev,"axG",@progbits,_ZN15GameApplicationD5Ev,comdat
	.align 2
	.weak	_ZN15GameApplicationD2Ev
	.type	_ZN15GameApplicationD2Ev, @function
_ZN15GameApplicationD2Ev:
.LFB757:
	.loc 4 21 0
	.cfi_startproc
	.cfi_personality 0x0,__gxx_personality_v0
	.cfi_lsda 0x0,.LLSDA757
.LVL42:
	mflr 0
	stwu 1,-16(1)
.LCFI18:
	.cfi_def_cfa_offset 16
.LBB150:
	lis 9,_ZTV15GameApplication+8@ha
.LBE150:
	stw 31,12(1)
	mr 31,3
	.cfi_offset 31, -4
	.cfi_register 65, 0
	stw 0,20(1)
.LBB151:
	la 0,_ZTV15GameApplication+8@l(9)
	.cfi_offset 65, 4
.LBE151:
	stw 30,8(1)
.LBB152:
	.loc 4 21 0
	stw 0,0(3)
	addi 3,3,56
.LVL43:
.LEHB3:
	.cfi_offset 30, -8
	bl _ZN4Wire7PointerINS_6CameraEED1Ev
.LEHE3:
	.loc 4 21 0 is_stmt 0 discriminator 1
	addi 3,31,52
.LEHB4:
	bl _ZN4Wire7PointerINS_8GeometryEED1Ev
.LEHE4:
	.loc 4 21 0 discriminator 2
	mr 3,31
.LEHB5:
	bl _ZN4Wire13GXApplicationD2Ev
.LEHE5:
.LBE152:
	lwz 0,20(1)
	lwz 30,8(1)
	mtlr 0
	lwz 31,12(1)
.LVL44:
	addi 1,1,16
	.cfi_remember_state
.LCFI19:
	.cfi_def_cfa_offset 0
	.cfi_restore 31
	.cfi_restore 30
	blr
.LVL45:
.L28:
.LCFI20:
	.cfi_restore_state
	mr 30,3
.LBB153:
	.loc 4 21 0
	addi 3,31,52
	bl _ZN4Wire7PointerINS_8GeometryEED1Ev
.L27:
	mr 3,31
	bl _ZN4Wire13GXApplicationD2Ev
	mr 3,30
.LEHB6:
	bl _Unwind_Resume
.LEHE6:
.L29:
	mr 30,3
	b .L27
.LBE153:
	.cfi_endproc
.LFE757:
	.size	_ZN15GameApplicationD2Ev, .-_ZN15GameApplicationD2Ev
	.section	.gcc_except_table
.LLSDA757:
	.byte	0xff
	.byte	0xff
	.byte	0x1
	.uleb128 .LLSDACSE757-.LLSDACSB757
.LLSDACSB757:
	.uleb128 .LEHB3-.LFB757
	.uleb128 .LEHE3-.LEHB3
	.uleb128 .L28-.LFB757
	.uleb128 0x0
	.uleb128 .LEHB4-.LFB757
	.uleb128 .LEHE4-.LEHB4
	.uleb128 .L29-.LFB757
	.uleb128 0x0
	.uleb128 .LEHB5-.LFB757
	.uleb128 .LEHE5-.LEHB5
	.uleb128 0x0
	.uleb128 0x0
	.uleb128 .LEHB6-.LFB757
	.uleb128 .LEHE6-.LEHB6
	.uleb128 0x0
	.uleb128 0x0
.LLSDACSE757:
	.section	.text._ZN15GameApplicationD2Ev,"axG",@progbits,_ZN15GameApplicationD5Ev,comdat
	.weak	_ZN15GameApplicationD1Ev
	.set	_ZN15GameApplicationD1Ev,_ZN15GameApplicationD2Ev
	.section	.text._ZN15GameApplicationD0Ev,"axG",@progbits,_ZN15GameApplicationD5Ev,comdat
	.align 2
	.weak	_ZN15GameApplicationD0Ev
	.type	_ZN15GameApplicationD0Ev, @function
_ZN15GameApplicationD0Ev:
.LFB759:
	.loc 4 21 0 is_stmt 1
	.cfi_startproc
	.cfi_personality 0x0,__gxx_personality_v0
	.cfi_lsda 0x0,.LLSDA759
.LVL46:
	mflr 0
	stwu 1,-16(1)
.LCFI21:
	.cfi_def_cfa_offset 16
.LBB157:
.LBB159:
.LBB161:
	lis 9,_ZTV15GameApplication+8@ha
.LBE161:
.LBE159:
.LBE157:
	stw 31,12(1)
	mr 31,3
	.cfi_offset 31, -4
	.cfi_register 65, 0
.LVL47:
	stw 0,20(1)
.LBB166:
.LBB164:
.LBB162:
	la 0,_ZTV15GameApplication+8@l(9)
	.cfi_offset 65, 4
.LBE162:
.LBE164:
.LBE166:
	stw 30,8(1)
.LBB167:
.LBB158:
.LBB160:
	.loc 4 21 0
	stw 0,0(3)
	addi 3,3,56
.LVL48:
.LEHB7:
	.cfi_offset 30, -8
	bl _ZN4Wire7PointerINS_6CameraEED1Ev
.LEHE7:
	addi 3,31,52
.LEHB8:
	bl _ZN4Wire7PointerINS_8GeometryEED1Ev
.LEHE8:
	mr 3,31
.LEHB9:
	bl _ZN4Wire13GXApplicationD2Ev
.LEHE9:
.LBE160:
.LBE158:
.LBE167:
	mr 3,31
	bl _ZdlPv
	lwz 0,20(1)
	lwz 30,8(1)
	mtlr 0
	lwz 31,12(1)
.LVL49:
	addi 1,1,16
	.cfi_remember_state
.LCFI22:
	.cfi_def_cfa_offset 0
	.cfi_restore 31
	.cfi_restore 30
	blr
.LVL50:
.L36:
.LCFI23:
	.cfi_restore_state
	mr 30,3
.LBB168:
.LBB165:
.LBB163:
	addi 3,31,52
	bl _ZN4Wire7PointerINS_8GeometryEED1Ev
.L33:
	mr 3,31
	bl _ZN4Wire13GXApplicationD2Ev
	mr 3,30
.LEHB10:
	bl _Unwind_Resume
.LEHE10:
.L35:
	mr 30,3
	b .L33
.LBE163:
.LBE165:
.LBE168:
	.cfi_endproc
.LFE759:
	.size	_ZN15GameApplicationD0Ev, .-_ZN15GameApplicationD0Ev
	.section	.gcc_except_table
.LLSDA759:
	.byte	0xff
	.byte	0xff
	.byte	0x1
	.uleb128 .LLSDACSE759-.LLSDACSB759
.LLSDACSB759:
	.uleb128 .LEHB7-.LFB759
	.uleb128 .LEHE7-.LEHB7
	.uleb128 .L36-.LFB759
	.uleb128 0x0
	.uleb128 .LEHB8-.LFB759
	.uleb128 .LEHE8-.LEHB8
	.uleb128 .L35-.LFB759
	.uleb128 0x0
	.uleb128 .LEHB9-.LFB759
	.uleb128 .LEHE9-.LEHB9
	.uleb128 0x0
	.uleb128 0x0
	.uleb128 .LEHB10-.LFB759
	.uleb128 .LEHE10-.LEHB10
	.uleb128 0x0
	.uleb128 0x0
.LLSDACSE759:
	.section	.text._ZN15GameApplicationD0Ev,"axG",@progbits,_ZN15GameApplicationD5Ev,comdat
	.section	.text._ZN4Wire7PointerINS_8GeometryEEaSEPS1_,"axG",@progbits,_ZN4Wire7PointerINS_8GeometryEEaSEPS1_,comdat
	.align 2
	.weak	_ZN4Wire7PointerINS_8GeometryEEaSEPS1_
	.type	_ZN4Wire7PointerINS_8GeometryEEaSEPS1_, @function
_ZN4Wire7PointerINS_8GeometryEEaSEPS1_:
.LFB733:
	.loc 5 71 0
	.cfi_startproc
.LVL51:
	mflr 0
	stwu 1,-16(1)
.LCFI24:
	.cfi_def_cfa_offset 16
	stw 31,12(1)
	mr 31,3
	.cfi_offset 31, -4
	.cfi_register 65, 0
	stw 0,20(1)
	stw 30,8(1)
	.loc 5 71 0
	mr 30,4
	.cfi_offset 30, -8
	.cfi_offset 65, 4
	.loc 5 73 0
	lwz 3,0(3)
.LVL52:
	cmpw 7,3,4
	beq- 7,.L38
	.loc 5 75 0
	cmpwi 7,4,0
	beq- 7,.L39
.LBB169:
.LBB170:
	.loc 6 14 0
	lwz 9,4(4)
	addi 0,9,1
	stw 0,4(4)
.L39:
.LBE170:
.LBE169:
	.loc 5 80 0
	cmpwi 7,3,0
	beq- 7,.L40
	.loc 5 82 0
	bl _ZN4Wire6Object19DecrementReferencesEv
.LVL53:
.L40:
	.loc 5 85 0
	stw 30,0(31)
.L38:
	.loc 5 89 0
	lwz 0,20(1)
	mr 3,31
	lwz 30,8(1)
.LVL54:
	mtlr 0
	lwz 31,12(1)
.LVL55:
	addi 1,1,16
.LCFI25:
	.cfi_def_cfa_offset 0
	.cfi_restore 31
	.cfi_restore 30
	blr
	.cfi_endproc
.LFE733:
	.size	_ZN4Wire7PointerINS_8GeometryEEaSEPS1_, .-_ZN4Wire7PointerINS_8GeometryEEaSEPS1_
	.section	".text"
	.align 2
	.globl _ZN15GameApplication12OnInitializeEv
	.type	_ZN15GameApplication12OnInitializeEv, @function
_ZN15GameApplication12OnInitializeEv:
.LFB654:
	.loc 1 32 0
	.cfi_startproc
	.cfi_personality 0x0,__gxx_personality_v0
	.cfi_lsda 0x0,.LLSDA654
.LVL56:
	mflr 0
	stwu 1,-56(1)
.LCFI26:
	.cfi_def_cfa_offset 56
	stw 31,44(1)
	mr 31,3
	.cfi_offset 31, -12
	.cfi_register 65, 0
	stw 0,60(1)
	stfd 31,48(1)
	stw 30,40(1)
.LEHB11:
.LBB171:
	.loc 1 36 0
	.cfi_offset 30, -16
	.cfi_offset 63, -8
	.cfi_offset 65, 4
	bl _ZN4Wire13GXApplication12OnInitializeEv
.LVL57:
	cmpwi 7,3,0
	.loc 1 38 0
	li 3,0
	.loc 1 36 0
	bne- 7,.L46
.LBE171:
	.loc 1 60 0
	lwz 0,60(1)
	lwz 30,40(1)
	mtlr 0
	lwz 31,44(1)
.LVL58:
	lfd 31,48(1)
	addi 1,1,56
	.cfi_remember_state
.LCFI27:
	.cfi_def_cfa_offset 0
	.cfi_restore 63
	.cfi_restore 31
	.cfi_restore 30
	blr
.LVL59:
.L46:
.LCFI28:
	.cfi_restore_state
.LBB184:
	.loc 1 51 0
	lis 9,.LC0@ha
	li 4,0
	lfs 31,.LC0@l(9)
	li 3,4
	fmr 1,31
	bl _ZN4Wire12StandardMesh11CreateCube8Ejbf
	mr 4,3
	addi 3,31,52
	bl _ZN4Wire7PointerINS_8GeometryEEaSEPS1_
.LVL60:
.LBB172:
.LBB174:
	.loc 2 87 0
	lis 9,.LC2@ha
	lwz 9,.LC2@l(9)
	.loc 2 85 0
	li 0,0
	stw 0,60(31)
.LBE174:
.LBE172:
	.loc 1 57 0
	li 3,100
.LBB176:
.LBB173:
	.loc 2 87 0
	stw 9,68(31)
.LVL61:
.LBE173:
.LBE176:
.LBB177:
.LBB178:
	.loc 2 22 0
	lis 9,.LC1@ha
	lwz 9,.LC1@l(9)
.LBE178:
.LBE177:
.LBB180:
.LBB175:
	.loc 2 86 0
	stw 0,64(31)
.LBE175:
.LBE180:
.LBB181:
.LBB179:
	.loc 2 20 0
	stw 0,8(1)
	.loc 2 21 0
	stw 0,12(1)
	.loc 2 22 0
	stw 9,16(1)
.LVL62:
.LBE179:
.LBE181:
.LBB182:
.LBB183:
	.loc 2 20 0
	stw 0,20(1)
	.loc 2 21 0
	stfs 31,24(1)
	.loc 2 22 0
	stw 0,28(1)
.LBE183:
.LBE182:
	.loc 1 57 0
	bl _Znwj
.LEHE11:
	addi 4,31,60
	addi 5,1,8
	addi 6,1,20
	li 7,1
	mr 30,3
.LEHB12:
	bl _ZN4Wire6CameraC1ERKNS_7Vector3IfEES4_S4_b
.LEHE12:
	.loc 1 57 0 is_stmt 0 discriminator 1
	addi 3,31,56
	mr 4,30
.LEHB13:
	bl _ZN4Wire7PointerINS_6CameraEEaSEPS1_
.LBE184:
	.loc 1 60 0 is_stmt 1 discriminator 1
	lwz 0,60(1)
.LBB185:
	.loc 1 59 0 discriminator 1
	li 3,1
.LBE185:
	.loc 1 60 0 discriminator 1
	lwz 30,40(1)
	mtlr 0
	lwz 31,44(1)
.LVL63:
	lfd 31,48(1)
	addi 1,1,56
	.cfi_remember_state
	.cfi_restore 30
	.cfi_restore 31
	.cfi_restore 63
.LCFI29:
	.cfi_def_cfa_offset 0
	blr
.LVL64:
.L45:
.LCFI30:
	.cfi_restore_state
	mr 31,3
.LVL65:
.LBB186:
	.loc 1 57 0
	mr 3,30
	bl _ZdlPv
	mr 3,31
	bl _Unwind_Resume
.LEHE13:
.LBE186:
	.cfi_endproc
.LFE654:
	.size	_ZN15GameApplication12OnInitializeEv, .-_ZN15GameApplication12OnInitializeEv
	.section	.gcc_except_table
.LLSDA654:
	.byte	0xff
	.byte	0xff
	.byte	0x1
	.uleb128 .LLSDACSE654-.LLSDACSB654
.LLSDACSB654:
	.uleb128 .LEHB11-.LFB654
	.uleb128 .LEHE11-.LEHB11
	.uleb128 0x0
	.uleb128 0x0
	.uleb128 .LEHB12-.LFB654
	.uleb128 .LEHE12-.LEHB12
	.uleb128 .L45-.LFB654
	.uleb128 0x0
	.uleb128 .LEHB13-.LFB654
	.uleb128 .LEHE13-.LEHB13
	.uleb128 0x0
	.uleb128 0x0
.LLSDACSE654:
	.section	".text"
	.align 2
	.type	_GLOBAL__I__ZN15GameApplication22s_InitializeRegisteredE, @function
_GLOBAL__I__ZN15GameApplication22s_InitializeRegisteredE:
.LFB761:
	.loc 1 125 0
	.cfi_startproc
.LVL66:
	mflr 0
	stwu 1,-16(1)
.LCFI31:
	.cfi_def_cfa_offset 16
	stw 31,12(1)
	stw 0,20(1)
.LBB187:
.LBB188:
	.file 7 "/home/pete/code/wire3d/Wire/Engine/WireStateAlpha.h"
	.loc 7 63 0
	.cfi_offset 31, -4
	.cfi_offset 65, 4
	bl _ZN4Wire10StateAlpha18RegisterInitializeEv
	lis 9,.LANCHOR0@ha
	la 31,.LANCHOR0@l(9)
	stb 3,.LANCHOR0@l(9)
	.loc 7 64 0
	bl _ZN4Wire10StateAlpha17RegisterTerminateEv
	stb 3,1(31)
	.file 8 "/home/pete/code/wire3d/Wire/Engine/WireStateCull.h"
	.loc 8 44 0
	bl _ZN4Wire9StateCull18RegisterInitializeEv
	stb 3,2(31)
	.loc 8 45 0
	bl _ZN4Wire9StateCull17RegisterTerminateEv
	stb 3,3(31)
	.file 9 "/home/pete/code/wire3d/Wire/Engine/WireStateFog.h"
	.loc 9 48 0
	bl _ZN4Wire8StateFog18RegisterInitializeEv
	stb 3,4(31)
	.loc 9 49 0
	bl _ZN4Wire8StateFog17RegisterTerminateEv
	stb 3,5(31)
	.file 10 "/home/pete/code/wire3d/Wire/Engine/WireStateMaterial.h"
	.loc 10 36 0
	bl _ZN4Wire13StateMaterial18RegisterInitializeEv
	stb 3,6(31)
	.loc 10 37 0
	bl _ZN4Wire13StateMaterial17RegisterTerminateEv
	stb 3,7(31)
	.file 11 "/home/pete/code/wire3d/Wire/Engine/WireStateWireframe.h"
	.loc 11 35 0
	bl _ZN4Wire14StateWireframe18RegisterInitializeEv
	stb 3,8(31)
	.loc 11 36 0
	bl _ZN4Wire14StateWireframe17RegisterTerminateEv
	stb 3,9(31)
	.file 12 "/home/pete/code/wire3d/Wire/Engine/WireStateZBuffer.h"
	.loc 12 50 0
	bl _ZN4Wire12StateZBuffer18RegisterInitializeEv
	stb 3,10(31)
	.loc 12 51 0
	bl _ZN4Wire12StateZBuffer17RegisterTerminateEv
	stb 3,11(31)
	.file 13 "/home/pete/code/wire3d/Wire/Engine/WireStandardMesh.h"
	.loc 13 71 0
	bl _ZN4Wire12StandardMesh17RegisterTerminateEv
	stb 3,12(31)
	.file 14 "/home/pete/code/wire3d/Wire/Foundation/WireNoisePerlin.h"
	.loc 14 29 0
	bl _ZN4Wire15NoisePerlinBase18RegisterInitializeEv
	stb 3,13(31)
	.loc 4 40 0
	bl _ZN15GameApplication18RegisterInitializeEv
.LBE188:
.LBE187:
	.loc 1 125 0
	lwz 0,20(1)
.LBB190:
.LBB189:
	.loc 4 40 0
	stb 3,14(31)
.LBE189:
.LBE190:
	.loc 1 125 0
	mtlr 0
	lwz 31,12(1)
	addi 1,1,16
.LCFI32:
	.cfi_def_cfa_offset 0
	.cfi_restore 31
	blr
	.cfi_endproc
.LFE761:
	.size	_GLOBAL__I__ZN15GameApplication22s_InitializeRegisteredE, .-_GLOBAL__I__ZN15GameApplication22s_InitializeRegisteredE
	.section	.ctors,"aw",@progbits
	.align 2
	.long	_GLOBAL__I__ZN15GameApplication22s_InitializeRegisteredE
	.globl _ZN15GameApplication22s_InitializeRegisteredE
	.weak	_ZTV15GameApplication
	.section	.rodata._ZTV15GameApplication,"aG",@progbits,_ZTV15GameApplication,comdat
	.align 3
	.type	_ZTV15GameApplication, @object
	.size	_ZTV15GameApplication, 40
_ZTV15GameApplication:
	.long	0
	.long	_ZTI15GameApplication
	.long	_ZN15GameApplicationD1Ev
	.long	_ZN15GameApplicationD0Ev
	.long	_ZN4Wire13GXApplication4MainEiPPc
	.long	_ZN15GameApplication11OnPrecreateEv
	.long	_ZN15GameApplication12OnInitializeEv
	.long	_ZN15GameApplication6OnIdleEv
	.long	_ZN15GameApplication11OnTerminateEv
	.long	_ZN4Wire11Application8OnResizeEjj
	.weak	_ZTS15GameApplication
	.section	.rodata._ZTS15GameApplication,"aG",@progbits,_ZTS15GameApplication,comdat
	.align 2
	.type	_ZTS15GameApplication, @object
	.size	_ZTS15GameApplication, 18
_ZTS15GameApplication:
	.string	"15GameApplication"
	.weak	_ZTI15GameApplication
	.section	.rodata._ZTI15GameApplication,"aG",@progbits,_ZTI15GameApplication,comdat
	.align 2
	.type	_ZTI15GameApplication, @object
	.size	_ZTI15GameApplication, 12
_ZTI15GameApplication:
	.long	_ZTVN10__cxxabiv120__si_class_type_infoE+8
	.long	_ZTS15GameApplication
	.long	_ZTIN4Wire13GXApplicationE
	.section	.rodata.cst4,"aM",@progbits,4
	.align 2
.LC0:
	.4byte	1065353216
.LC1:
	.4byte	3212836864
.LC2:
	.4byte	1092616192
.LC3:
	.4byte	1084227584
	.section	.sbss,"aw",@nobits
	.type	_ZN15GameApplication22s_InitializeRegisteredE, @object
	.size	_ZN15GameApplication22s_InitializeRegisteredE, 1
_ZN15GameApplication22s_InitializeRegisteredE:
	.zero	1
	.section	".bss"
	.set	.LANCHOR0,. + 0
	.type	_ZN4WireL33gs_InitializeRegisteredStateAlphaE, @object
	.size	_ZN4WireL33gs_InitializeRegisteredStateAlphaE, 1
_ZN4WireL33gs_InitializeRegisteredStateAlphaE:
	.zero	1
	.type	_ZN4WireL32gs_TerminateRegisteredStateAlphaE, @object
	.size	_ZN4WireL32gs_TerminateRegisteredStateAlphaE, 1
_ZN4WireL32gs_TerminateRegisteredStateAlphaE:
	.zero	1
	.type	_ZN4WireL32gs_InitializeRegisteredStateCullE, @object
	.size	_ZN4WireL32gs_InitializeRegisteredStateCullE, 1
_ZN4WireL32gs_InitializeRegisteredStateCullE:
	.zero	1
	.type	_ZN4WireL31gs_TerminateRegisteredStateCullE, @object
	.size	_ZN4WireL31gs_TerminateRegisteredStateCullE, 1
_ZN4WireL31gs_TerminateRegisteredStateCullE:
	.zero	1
	.type	_ZN4WireL31gs_InitializeRegisteredStateFogE, @object
	.size	_ZN4WireL31gs_InitializeRegisteredStateFogE, 1
_ZN4WireL31gs_InitializeRegisteredStateFogE:
	.zero	1
	.type	_ZN4WireL30gs_TerminateRegisteredStateFogE, @object
	.size	_ZN4WireL30gs_TerminateRegisteredStateFogE, 1
_ZN4WireL30gs_TerminateRegisteredStateFogE:
	.zero	1
	.type	_ZN4WireL36gs_InitializeRegisteredStateMaterialE, @object
	.size	_ZN4WireL36gs_InitializeRegisteredStateMaterialE, 1
_ZN4WireL36gs_InitializeRegisteredStateMaterialE:
	.zero	1
	.type	_ZN4WireL35gs_TerminateRegisteredStateMaterialE, @object
	.size	_ZN4WireL35gs_TerminateRegisteredStateMaterialE, 1
_ZN4WireL35gs_TerminateRegisteredStateMaterialE:
	.zero	1
	.type	_ZN4WireL37gs_InitializeRegisteredStateWireframeE, @object
	.size	_ZN4WireL37gs_InitializeRegisteredStateWireframeE, 1
_ZN4WireL37gs_InitializeRegisteredStateWireframeE:
	.zero	1
	.type	_ZN4WireL36gs_TerminateRegisteredStateWireframeE, @object
	.size	_ZN4WireL36gs_TerminateRegisteredStateWireframeE, 1
_ZN4WireL36gs_TerminateRegisteredStateWireframeE:
	.zero	1
	.type	_ZN4WireL35gs_InitializeRegisteredStateZBufferE, @object
	.size	_ZN4WireL35gs_InitializeRegisteredStateZBufferE, 1
_ZN4WireL35gs_InitializeRegisteredStateZBufferE:
	.zero	1
	.type	_ZN4WireL34gs_TerminateRegisteredStateZBufferE, @object
	.size	_ZN4WireL34gs_TerminateRegisteredStateZBufferE, 1
_ZN4WireL34gs_TerminateRegisteredStateZBufferE:
	.zero	1
	.type	_ZN4WireL34gs_TerminateRegisteredStandardMeshE, @object
	.size	_ZN4WireL34gs_TerminateRegisteredStandardMeshE, 1
_ZN4WireL34gs_TerminateRegisteredStandardMeshE:
	.zero	1
	.type	_ZN4WireL38gs_InitializeRegisteredNoisePerlinBaseE, @object
	.size	_ZN4WireL38gs_InitializeRegisteredNoisePerlinBaseE, 1
_ZN4WireL38gs_InitializeRegisteredNoisePerlinBaseE:
	.zero	1
	.type	_ZL38gs_InitializeRegisteredGameApplication, @object
	.size	_ZL38gs_InitializeRegisteredGameApplication, 1
_ZL38gs_InitializeRegisteredGameApplication:
	.zero	1
	.section	".text"
.Letext0: