	.file	"Line.cpp"
	.gnu_attribute 4, 1
	.gnu_attribute 8, 1
	.gnu_attribute 12, 1
	.section	".text"
.Ltext0:
	.align 2
	.globl _ZN4LineD2Ev
	.type	_ZN4LineD2Ev, @function
_ZN4LineD2Ev:
.LFB28:
	.file 1 "/home/pete/code/liiner/src/Line.cpp"
	.loc 1 20 0
	.cfi_startproc
.LVL0:
.LBB96:
	.loc 1 20 0
	lis 9,_ZTV4Line+8@ha
	la 0,_ZTV4Line+8@l(9)
.LBB97:
.LBB98:
.LBB99:
	.file 2 "/home/pete/code/liiner/src/Point.h"
	.loc 2 16 0
	lis 9,_ZTV5PointIiE+8@ha
.LBE99:
.LBE98:
.LBE97:
	.loc 1 20 0
	stw 0,0(3)
.LVL1:
.LBB102:
.LBB101:
.LBB100:
	.loc 2 16 0
	la 0,_ZTV5PointIiE+8@l(9)
	stw 0,4(3)
.LBE100:
.LBE101:
.LBE102:
.LBE96:
	.loc 1 23 0
	blr
	.cfi_endproc
.LFE28:
	.size	_ZN4LineD2Ev, .-_ZN4LineD2Ev
	.globl _ZN4LineD1Ev
	.set	_ZN4LineD1Ev,_ZN4LineD2Ev
	.section	.text._ZN5PointIiED2Ev,"axG",@progbits,_ZN5PointIiED5Ev,comdat
	.align 2
	.weak	_ZN5PointIiED2Ev
	.type	_ZN5PointIiED2Ev, @function
_ZN5PointIiED2Ev:
.LFB34:
	.loc 2 16 0
	.cfi_startproc
.LVL2:
.LBB103:
	.loc 2 16 0
	lis 9,_ZTV5PointIiE+8@ha
	la 0,_ZTV5PointIiE+8@l(9)
	stw 0,0(3)
.LBE103:
	blr
	.cfi_endproc
.LFE34:
	.size	_ZN5PointIiED2Ev, .-_ZN5PointIiED2Ev
	.weak	_ZN5PointIiED1Ev
	.set	_ZN5PointIiED1Ev,_ZN5PointIiED2Ev
	.section	.text._ZN5PointIiED0Ev,"axG",@progbits,_ZN5PointIiED5Ev,comdat
	.align 2
	.weak	_ZN5PointIiED0Ev
	.type	_ZN5PointIiED0Ev, @function
_ZN5PointIiED0Ev:
.LFB36:
	.loc 2 16 0
	.cfi_startproc
.LVL3:
	mflr 0
	stwu 1,-8(1)
.LCFI0:
	.cfi_def_cfa_offset 8
.LBB104:
.LBB105:
.LBB106:
	lis 9,_ZTV5PointIiE+8@ha
.LBE106:
.LBE105:
.LBE104:
	stw 0,12(1)
.LBB109:
.LBB108:
.LBB107:
	.loc 2 16 0
	la 0,_ZTV5PointIiE+8@l(9)
	stw 0,0(3)
.LBE107:
.LBE108:
.LBE109:
	.cfi_offset 65, 4
	bl _ZdlPv
.LVL4:
	lwz 0,12(1)
	addi 1,1,8
.LCFI1:
	.cfi_def_cfa_offset 0
	mtlr 0
	blr
	.cfi_endproc
.LFE36:
	.size	_ZN5PointIiED0Ev, .-_ZN5PointIiED0Ev
	.section	".text"
	.align 2
	.globl _ZN4LineD0Ev
	.type	_ZN4LineD0Ev, @function
_ZN4LineD0Ev:
.LFB30:
	.loc 1 20 0
	.cfi_startproc
.LVL5:
	mflr 0
	stwu 1,-8(1)
.LCFI2:
	.cfi_def_cfa_offset 8
.LBB110:
.LBB111:
.LBB112:
	lis 11,_ZTV4Line+8@ha
.LBE112:
.LBE111:
.LBE110:
	stw 0,12(1)
.LBB121:
.LBB120:
.LBB119:
	.loc 1 20 0
	la 0,_ZTV4Line+8@l(11)
.LBB113:
.LBB114:
.LBB115:
	.loc 2 16 0
	lis 11,_ZTV5PointIiE+8@ha
.LBE115:
.LBE114:
.LBE113:
	.loc 1 20 0
	stw 0,0(3)
.LBB118:
.LBB117:
.LBB116:
	.loc 2 16 0
	la 0,_ZTV5PointIiE+8@l(11)
	stw 0,4(3)
.LBE116:
.LBE117:
.LBE118:
.LBE119:
.LBE120:
.LBE121:
	.loc 1 23 0
	.cfi_offset 65, 4
	bl _ZdlPv
.LVL6:
	lwz 0,12(1)
	addi 1,1,8
.LCFI3:
	.cfi_def_cfa_offset 0
	mtlr 0
	blr
	.cfi_endproc
.LFE30:
	.size	_ZN4LineD0Ev, .-_ZN4LineD0Ev
	.align 2
	.globl _ZN4LineC2E5PointIiE
	.type	_ZN4LineC2E5PointIiE, @function
_ZN4LineC2E5PointIiE:
.LFB25:
	.loc 1 12 0
	.cfi_startproc
	.cfi_personality 0x0,__gxx_personality_v0
	.cfi_lsda 0x0,.LLSDA25
.LVL7:
	mflr 0
	stwu 1,-56(1)
.LCFI4:
	.cfi_def_cfa_offset 56
.LBB122:
	.loc 1 14 0
	lis 10,_ZTV4Line+8@ha
.LBE122:
	.loc 1 12 0
	stw 30,48(1)
.LBB140:
.LBB130:
.LBB133:
	.loc 2 14 0
	lis 30,_ZTV5PointIiE+8@ha
	.cfi_offset 30, -8
	.cfi_register 65, 0
.LBE133:
.LBE130:
.LBE140:
	.loc 1 12 0
	stw 0,60(1)
.LBB141:
.LBB136:
.LBB132:
	.loc 2 14 0
	li 0,0
	.cfi_offset 65, 4
.LBE132:
.LBE136:
.LBE141:
	.loc 1 12 0
	stw 31,52(1)
.LBB142:
.LBB129:
.LBB134:
	.loc 2 14 0
	la 30,_ZTV5PointIiE+8@l(30)
.LBE134:
.LBE129:
.LBE142:
	.loc 1 12 0
	stw 28,40(1)
.LBB143:
	.loc 1 14 0
	la 10,_ZTV4Line+8@l(10)
.LBE143:
	.loc 1 12 0
	stw 29,44(1)
	.loc 1 12 0
	mr 31,3
	.cfi_offset 29, -12
	.cfi_offset 28, -16
	.cfi_offset 31, -4
.LBB144:
.LBB128:
.LBB131:
	.loc 2 14 0
	stw 0,8(3)
	stw 0,12(3)
.LBE131:
.LBE128:
	.loc 1 37 0
	lwz 11,4(4)
	lwz 9,8(4)
.LBB127:
.LBB135:
	.loc 2 14 0
	stw 30,4(3)
.LBE135:
.LBE127:
	.loc 1 14 0
	stw 10,0(3)
.LVL8:
	stw 0,16(3)
	stw 0,20(3)
	.loc 1 16 0
	li 3,36
.LVL9:
.LBB125:
.LBB126:
	.loc 2 12 0
	stw 30,8(1)
	stw 11,12(1)
	stw 9,16(1)
.LVL10:
.LBE126:
.LBE125:
.LBB123:
.LBB124:
	stw 30,20(1)
	stw 11,24(1)
	stw 9,28(1)
.LEHB0:
.LBE124:
.LBE123:
	.loc 1 16 0
	bl _Znwj
.LEHE0:
.LVL11:
	addi 4,1,8
	addi 5,1,20
	mr 29,3
.LEHB1:
	bl _ZN7SegmentC1E5PointIiES1_
.LEHE1:
.LBE144:
	.loc 1 18 0 discriminator 1
	lwz 0,60(1)
.LBB145:
	.loc 1 16 0 discriminator 1
	stw 29,16(31)
.LVL12:
.LBE145:
	.loc 1 18 0 discriminator 1
	mtlr 0
.LBB146:
	.loc 1 17 0 discriminator 1
	stw 29,20(31)
.LBE146:
	.loc 1 18 0 discriminator 1
	lwz 28,40(1)
	lwz 29,44(1)
	lwz 30,48(1)
	lwz 31,52(1)
.LVL13:
	addi 1,1,56
	.cfi_remember_state
.LCFI5:
	.cfi_def_cfa_offset 0
	.cfi_restore 31
	.cfi_restore 30
	.cfi_restore 29
	.cfi_restore 28
	blr
.LVL14:
.L20:
.L18:
.LCFI6:
	.cfi_restore_state
.LBB147:
.LBB137:
.LBB138:
.LBB139:
	.loc 2 16 0
	stw 30,4(31)
.LEHB2:
	bl _Unwind_Resume
.LEHE2:
.LVL15:
.L21:
	mr 28,3
.LBE139:
.LBE138:
.LBE137:
	.loc 1 16 0
	mr 3,29
	bl _ZdlPv
	mr 3,28
	b .L18
.LBE147:
	.cfi_endproc
.LFE25:
	.size	_ZN4LineC2E5PointIiE, .-_ZN4LineC2E5PointIiE
	.globl __gxx_personality_v0
	.section	.gcc_except_table,"a",@progbits
.LLSDA25:
	.byte	0xff
	.byte	0xff
	.byte	0x1
	.uleb128 .LLSDACSE25-.LLSDACSB25
.LLSDACSB25:
	.uleb128 .LEHB0-.LFB25
	.uleb128 .LEHE0-.LEHB0
	.uleb128 .L20-.LFB25
	.uleb128 0x0
	.uleb128 .LEHB1-.LFB25
	.uleb128 .LEHE1-.LEHB1
	.uleb128 .L21-.LFB25
	.uleb128 0x0
	.uleb128 .LEHB2-.LFB25
	.uleb128 .LEHE2-.LEHB2
	.uleb128 0x0
	.uleb128 0x0
.LLSDACSE25:
	.section	".text"
	.globl _ZN4LineC1E5PointIiE
	.set	_ZN4LineC1E5PointIiE,_ZN4LineC2E5PointIiE
	.align 2
	.globl _ZN4Line10addSegmentE5PointIiE
	.type	_ZN4Line10addSegmentE5PointIiE, @function
_ZN4Line10addSegmentE5PointIiE:
.LFB31:
	.loc 1 26 0
	.cfi_startproc
	.cfi_personality 0x0,__gxx_personality_v0
	.cfi_lsda 0x0,.LLSDA31
.LVL16:
	mflr 0
	stwu 1,-32(1)
.LCFI7:
	.cfi_def_cfa_offset 32
.LBB148:
.LBB150:
	.loc 2 12 0
	lis 11,_ZTV5PointIiE+8@ha
.LBE150:
.LBE148:
	.loc 1 26 0
	stw 31,28(1)
.LBB152:
.LBB149:
	.loc 2 12 0
	la 11,_ZTV5PointIiE+8@l(11)
.LBE149:
.LBE152:
	.loc 1 26 0
	stw 0,36(1)
	mr 31,3
	.cfi_offset 31, -4
	.cfi_offset 65, 4
	.loc 1 28 0
	li 3,36
.LVL17:
	.loc 1 26 0
	stw 30,24(1)
	.loc 1 37 0
	lwz 9,4(4)
	lwz 0,8(4)
.LVL18:
.LBB153:
.LBB151:
	.loc 2 12 0
	stw 11,8(1)
	stw 9,12(1)
	stw 0,16(1)
.LEHB3:
.LBE151:
.LBE153:
	.loc 1 28 0
	.cfi_offset 30, -8
	bl _Znwj
.LEHE3:
.LVL19:
	lwz 4,20(31)
	addi 5,1,8
	mr 30,3
.LEHB4:
	bl _ZN7SegmentC1EPS_5PointIiE
.LEHE4:
	.loc 1 29 0 discriminator 1
	lwz 0,36(1)
	.loc 1 28 0 discriminator 1
	stw 30,20(31)
.LVL20:
	.loc 1 29 0 discriminator 1
	mtlr 0
	lwz 30,24(1)
	lwz 31,28(1)
.LVL21:
	addi 1,1,32
	.cfi_remember_state
.LCFI8:
	.cfi_def_cfa_offset 0
	.cfi_restore 31
	.cfi_restore 30
	blr
.LVL22:
.L26:
.LCFI9:
	.cfi_restore_state
	mr 31,3
.LVL23:
	.loc 1 28 0
	mr 3,30
	bl _ZdlPv
	mr 3,31
.LEHB5:
	bl _Unwind_Resume
.LEHE5:
	.cfi_endproc
.LFE31:
	.size	_ZN4Line10addSegmentE5PointIiE, .-_ZN4Line10addSegmentE5PointIiE
	.section	.gcc_except_table
.LLSDA31:
	.byte	0xff
	.byte	0xff
	.byte	0x1
	.uleb128 .LLSDACSE31-.LLSDACSB31
.LLSDACSB31:
	.uleb128 .LEHB3-.LFB31
	.uleb128 .LEHE3-.LEHB3
	.uleb128 0x0
	.uleb128 0x0
	.uleb128 .LEHB4-.LFB31
	.uleb128 .LEHE4-.LEHB4
	.uleb128 .L26-.LFB31
	.uleb128 0x0
	.uleb128 .LEHB5-.LFB31
	.uleb128 .LEHE5-.LEHB5
	.uleb128 0x0
	.uleb128 0x0
.LLSDACSE31:
	.section	".text"
	.align 2
	.globl _ZN4Line6updateEd
	.type	_ZN4Line6updateEd, @function
_ZN4Line6updateEd:
.LFB32:
	.loc 1 32 0
	.cfi_startproc
.LVL24:
	mflr 0
	stwu 1,-24(1)
.LCFI10:
	.cfi_def_cfa_offset 24
.LBB154:
	.loc 1 35 0
	lwz 10,20(3)
.LBB156:
.LBB158:
	.loc 2 12 0
	lis 11,_ZTV5PointIiE+8@ha
.LBE158:
.LBE156:
	.loc 1 36 0
	addi 4,1,8
.LBB155:
.LBB159:
	.loc 2 12 0
	la 11,_ZTV5PointIiE+8@l(11)
.LBE159:
.LBE155:
.LBE154:
	.loc 1 32 0
	stw 0,28(1)
.LBB167:
	.loc 1 33 0
	li 0,10
.LBB161:
.LBB157:
	.loc 2 12 0
	stw 11,8(1)
.LBE157:
.LBE161:
.LBB162:
.LBB163:
	.loc 2 23 0
	lwz 9,20(10)
	lwz 10,24(10)
.LBE163:
.LBE162:
	.loc 1 33 0
	stw 0,8(3)
	.loc 1 34 0
	li 0,5
	stw 0,12(3)
.LBB165:
.LBB164:
	.loc 2 23 0
	addi 9,9,10
	addi 0,10,5
.LVL25:
.LBE164:
.LBE165:
.LBB166:
.LBB160:
	.loc 2 12 0
	stw 9,12(1)
	stw 0,16(1)
.LBE160:
.LBE166:
	.loc 1 36 0
	.cfi_offset 65, 4
	bl _ZN4Line10addSegmentE5PointIiE
.LVL26:
.LBE167:
	.loc 1 37 0
	lwz 0,28(1)
	addi 1,1,24
.LCFI11:
	.cfi_def_cfa_offset 0
	mtlr 0
	blr
	.cfi_endproc
.LFE32:
	.size	_ZN4Line6updateEd, .-_ZN4Line6updateEd
	.weak	_ZTV4Line
	.section	.rodata._ZTV4Line,"aG",@progbits,_ZTV4Line,comdat
	.align 3
	.type	_ZTV4Line, @object
	.size	_ZTV4Line, 16
_ZTV4Line:
	.long	0
	.long	_ZTI4Line
	.long	_ZN4LineD1Ev
	.long	_ZN4LineD0Ev
	.weak	_ZTS4Line
	.section	.sdata._ZTS4Line,"awG",@progbits,_ZTS4Line,comdat
	.align 2
	.type	_ZTS4Line, @object
	.size	_ZTS4Line, 6
_ZTS4Line:
	.string	"4Line"
	.weak	_ZTI4Line
	.section	.sdata._ZTI4Line,"awG",@progbits,_ZTI4Line,comdat
	.align 2
	.type	_ZTI4Line, @object
	.size	_ZTI4Line, 8
_ZTI4Line:
	.long	_ZTVN10__cxxabiv117__class_type_infoE+8
	.long	_ZTS4Line
	.weak	_ZTV5PointIiE
	.section	.rodata._ZTV5PointIiE,"aG",@progbits,_ZTV5PointIiE,comdat
	.align 3
	.type	_ZTV5PointIiE, @object
	.size	_ZTV5PointIiE, 16
_ZTV5PointIiE:
	.long	0
	.long	_ZTI5PointIiE
	.long	_ZN5PointIiED1Ev
	.long	_ZN5PointIiED0Ev
	.weak	_ZTI5PointIiE
	.section	.sdata._ZTI5PointIiE,"awG",@progbits,_ZTI5PointIiE,comdat
	.align 2
	.type	_ZTI5PointIiE, @object
	.size	_ZTI5PointIiE, 8
_ZTI5PointIiE:
	.long	_ZTVN10__cxxabiv117__class_type_infoE+8
	.long	_ZTS5PointIiE
	.weak	_ZTS5PointIiE
	.section	.rodata._ZTS5PointIiE,"aG",@progbits,_ZTS5PointIiE,comdat
	.align 2
	.type	_ZTS5PointIiE, @object
	.size	_ZTS5PointIiE, 10
_ZTS5PointIiE:
	.string	"5PointIiE"
	.section	".text"
.Letext0: