	.file	"Game.cpp"
	.gnu_attribute 4, 1
	.gnu_attribute 8, 1
	.gnu_attribute 12, 1
	.section	".text"
.Ltext0:
	.section	.text._ZN5PointIiED2Ev,"axG",@progbits,_ZN5PointIiED5Ev,comdat
	.align 2
	.weak	_ZN5PointIiED2Ev
	.type	_ZN5PointIiED2Ev, @function
_ZN5PointIiED2Ev:
.LFB482:
	.file 1 "/home/pete/code/liiner/src/Point.h"
	.loc 1 16 0
	.cfi_startproc
.LVL0:
.LBB414:
	.loc 1 16 0
	lis 9,_ZTV5PointIiE+8@ha
	la 0,_ZTV5PointIiE+8@l(9)
	stw 0,0(3)
.LBE414:
	blr
	.cfi_endproc
.LFE482:
	.size	_ZN5PointIiED2Ev, .-_ZN5PointIiED2Ev
	.weak	_ZN5PointIiED1Ev
	.set	_ZN5PointIiED1Ev,_ZN5PointIiED2Ev
	.section	.text._ZN5PointIiED0Ev,"axG",@progbits,_ZN5PointIiED5Ev,comdat
	.align 2
	.weak	_ZN5PointIiED0Ev
	.type	_ZN5PointIiED0Ev, @function
_ZN5PointIiED0Ev:
.LFB484:
	.loc 1 16 0
	.cfi_startproc
.LVL1:
	mflr 0
	stwu 1,-8(1)
.LCFI0:
	.cfi_def_cfa_offset 8
.LBB415:
.LBB416:
.LBB417:
	lis 9,_ZTV5PointIiE+8@ha
.LBE417:
.LBE416:
.LBE415:
	stw 0,12(1)
.LBB420:
.LBB419:
.LBB418:
	.loc 1 16 0
	la 0,_ZTV5PointIiE+8@l(9)
	stw 0,0(3)
.LBE418:
.LBE419:
.LBE420:
	.cfi_offset 65, 4
	bl _ZdlPv
.LVL2:
	lwz 0,12(1)
	addi 1,1,8
.LCFI1:
	.cfi_def_cfa_offset 0
	mtlr 0
	blr
	.cfi_endproc
.LFE484:
	.size	_ZN5PointIiED0Ev, .-_ZN5PointIiED0Ev
	.section	".text"
	.align 2
	.globl _ZN4GameD0Ev
	.type	_ZN4GameD0Ev, @function
_ZN4GameD0Ev:
.LFB469:
	.file 2 "/home/pete/code/liiner/src/Game.cpp"
	.loc 2 26 0
	.cfi_startproc
.LVL3:
	mflr 0
	stwu 1,-16(1)
.LCFI2:
	.cfi_def_cfa_offset 16
.LBB442:
.LBB443:
.LBB444:
	lis 9,_ZTV4Game+8@ha
.LBE444:
.LBE443:
.LBE442:
	stw 31,12(1)
	mr 31,3
	.cfi_offset 31, -4
	.cfi_register 65, 0
.LVL4:
	stw 0,20(1)
.LBB457:
.LBB456:
.LBB455:
	.loc 2 26 0
	la 0,_ZTV4Game+8@l(9)
	.cfi_offset 65, 4
.LBB445:
	.loc 2 38 0
	lwz 3,16(3)
.LVL5:
.LBE445:
	.loc 2 26 0
	stw 0,0(31)
.LVL6:
.LBB454:
.LBB446:
.LBB447:
.LBB448:
.LBB449:
.LBB450:
.LBB451:
	.file 3 "/opt/devkitpro/devkitPPC/lib/gcc/powerpc-eabi/4.5.1/../../../../powerpc-eabi/include/c++/4.5.1/bits/stl_vector.h"
	.loc 3 145 0
	cmpwi 7,3,0
	beq- 7,.L13
.LVL7:
.LBB452:
.LBB453:
	.file 4 "/opt/devkitpro/devkitPPC/lib/gcc/powerpc-eabi/4.5.1/../../../../powerpc-eabi/include/c++/4.5.1/ext/new_allocator.h"
	.loc 4 95 0
	bl _ZdlPv
.LVL8:
.L13:
.LBE453:
.LBE452:
.LBE451:
.LBE450:
.LBE449:
.LBE448:
.LBE447:
.LBE446:
.LBE454:
.LBE455:
.LBE456:
.LBE457:
	.loc 2 29 0 discriminator 1
	mr 3,31
	bl _ZdlPv
	lwz 0,20(1)
	lwz 31,12(1)
.LVL9:
	addi 1,1,16
.LCFI3:
	.cfi_def_cfa_offset 0
	.cfi_restore 31
	mtlr 0
	blr
	.cfi_endproc
.LFE469:
	.size	_ZN4GameD0Ev, .-_ZN4GameD0Ev
	.align 2
	.globl _ZN4GameD2Ev
	.type	_ZN4GameD2Ev, @function
_ZN4GameD2Ev:
.LFB467:
	.loc 2 26 0
	.cfi_startproc
.LVL10:
	mflr 0
	stwu 1,-8(1)
.LCFI4:
	.cfi_def_cfa_offset 8
.LBB477:
	lis 9,_ZTV4Game+8@ha
	la 9,_ZTV4Game+8@l(9)
.LBE477:
	stw 0,12(1)
.LBB487:
	.loc 2 26 0
	stw 9,0(3)
.LBB478:
	.loc 2 38 0
	lwz 0,16(3)
.LVL11:
.LBB479:
.LBB480:
.LBB481:
.LBB482:
.LBB483:
.LBB484:
	.loc 3 145 0
	cmpwi 7,0,0
	beq- 7,.L15
	.cfi_offset 65, 4
.LVL12:
.LBB485:
.LBB486:
	.loc 4 95 0
	mr 3,0
.LVL13:
	bl _ZdlPv
.LVL14:
.L15:
.LBE486:
.LBE485:
.LBE484:
.LBE483:
.LBE482:
.LBE481:
.LBE480:
.LBE479:
.LBE478:
.LBE487:
	.loc 2 29 0
	lwz 0,12(1)
	addi 1,1,8
.LCFI5:
	.cfi_def_cfa_offset 0
	mtlr 0
	blr
	.cfi_endproc
.LFE467:
	.size	_ZN4GameD2Ev, .-_ZN4GameD2Ev
	.globl _ZN4GameD1Ev
	.set	_ZN4GameD1Ev,_ZN4GameD2Ev
	.align 2
	.globl _ZN4Game6updateEd
	.type	_ZN4Game6updateEd, @function
_ZN4Game6updateEd:
.LFB470:
	.loc 2 32 0
	.cfi_startproc
.LVL15:
	mflr 0
	stwu 1,-24(1)
.LCFI6:
	.cfi_def_cfa_offset 24
	stw 31,12(1)
	stw 0,28(1)
	stfd 31,16(1)
	fmr 31,1
	.cfi_offset 63, -8
	.cfi_offset 31, -12
	.cfi_offset 65, 4
	.loc 2 38 0
	lwz 31,16(3)
.LBB488:
	.loc 2 33 0
	lwz 0,20(3)
.LBE488:
	.loc 2 32 0
	stw 30,8(1)
	.loc 2 32 0
	mr 30,3
	.cfi_offset 30, -16
.LBB493:
	.loc 2 33 0
	cmpw 7,31,0
	beq- 7,.L22
.LVL16:
.L25:
.LBB489:
	.loc 2 36 0
	fmr 1,31
	lwz 3,0(31)
.LBE489:
.LBB490:
.LBB491:
	.file 5 "/opt/devkitpro/devkitPPC/lib/gcc/powerpc-eabi/4.5.1/../../../../powerpc-eabi/include/c++/4.5.1/bits/stl_iterator.h"
	.loc 5 721 0
	addi 31,31,4
.LVL17:
.LBE491:
.LBE490:
.LBB492:
	.loc 2 36 0
	bl _ZN4Line6updateEd
.LVL18:
.LBE492:
	.loc 2 33 0
	lwz 0,20(30)
	cmpw 7,0,31
	bne+ 7,.L25
.L22:
.LBE493:
	.loc 2 38 0
	lwz 0,28(1)
	lwz 30,8(1)
.LVL19:
	mtlr 0
	lwz 31,12(1)
	lfd 31,16(1)
.LVL20:
	addi 1,1,24
.LCFI7:
	.cfi_def_cfa_offset 0
	.cfi_restore 63
	.cfi_restore 31
	.cfi_restore 30
	blr
	.cfi_endproc
.LFE470:
	.size	_ZN4Game6updateEd, .-_ZN4Game6updateEd
	.section	.text._ZNSt6vectorIP4LineSaIS1_EED2Ev,"axG",@progbits,_ZNSt6vectorIP4LineSaIS1_EED5Ev,comdat
	.align 2
	.weak	_ZNSt6vectorIP4LineSaIS1_EED2Ev
	.type	_ZNSt6vectorIP4LineSaIS1_EED2Ev, @function
_ZNSt6vectorIP4LineSaIS1_EED2Ev:
.LFB476:
	.loc 3 312 0
	.cfi_startproc
.LVL21:
	mflr 0
	stwu 1,-8(1)
.LCFI8:
	.cfi_def_cfa_offset 8
	stw 0,12(1)
	.loc 2 38 0
	lwz 3,0(3)
.LVL22:
.LBB510:
.LBB511:
.LBB512:
.LBB513:
.LBB514:
	.loc 3 145 0
	cmpwi 7,3,0
	beq- 7,.L27
	.cfi_offset 65, 4
.LVL23:
.LBB515:
.LBB516:
	.loc 4 95 0
	bl _ZdlPv
.LVL24:
.L27:
.LBE516:
.LBE515:
.LBE514:
.LBE513:
.LBE512:
.LBE511:
.LBE510:
	.loc 3 314 0
	lwz 0,12(1)
	addi 1,1,8
.LCFI9:
	.cfi_def_cfa_offset 0
	mtlr 0
	blr
	.cfi_endproc
.LFE476:
	.size	_ZNSt6vectorIP4LineSaIS1_EED2Ev, .-_ZNSt6vectorIP4LineSaIS1_EED2Ev
	.weak	_ZNSt6vectorIP4LineSaIS1_EED1Ev
	.set	_ZNSt6vectorIP4LineSaIS1_EED1Ev,_ZNSt6vectorIP4LineSaIS1_EED2Ev
	.section	.text._ZNSt6vectorIP4LineSaIS1_EE13_M_insert_auxEN9__gnu_cxx17__normal_iteratorIPS1_S3_EERKS1_,"axG",@progbits,_ZNSt6vectorIP4LineSaIS1_EE13_M_insert_auxEN9__gnu_cxx17__normal_iteratorIPS1_S3_EERKS1_,comdat
	.align 2
	.weak	_ZNSt6vectorIP4LineSaIS1_EE13_M_insert_auxEN9__gnu_cxx17__normal_iteratorIPS1_S3_EERKS1_
	.type	_ZNSt6vectorIP4LineSaIS1_EE13_M_insert_auxEN9__gnu_cxx17__normal_iteratorIPS1_S3_EERKS1_, @function
_ZNSt6vectorIP4LineSaIS1_EE13_M_insert_auxEN9__gnu_cxx17__normal_iteratorIPS1_S3_EERKS1_:
.LFB505:
	.file 6 "/opt/devkitpro/devkitPPC/lib/gcc/powerpc-eabi/4.5.1/../../../../powerpc-eabi/include/c++/4.5.1/bits/vector.tcc"
	.loc 6 295 0
	.cfi_startproc
.LVL25:
	mflr 0
	stwu 1,-40(1)
.LCFI10:
	.cfi_def_cfa_offset 40
	stw 31,36(1)
	mr 31,3
	.cfi_offset 31, -4
	.cfi_register 65, 0
	stw 0,44(1)
	stw 30,32(1)
.LBB577:
	.loc 6 299 0
	lwz 3,4(3)
.LVL26:
	lwz 0,8(31)
	.cfi_offset 30, -8
	.cfi_offset 65, 4
.LBE577:
	.loc 6 295 0
	stw 26,16(1)
.LBB700:
	.loc 6 299 0
	cmpw 7,3,0
.LBE700:
	.loc 6 295 0
	stw 27,20(1)
	stw 28,24(1)
	stw 29,28(1)
	.loc 6 295 0
	lwz 30,0(4)
.LBB701:
	.loc 6 299 0
	beq- 7,.L34
	.cfi_offset 29, -12
	.cfi_offset 28, -16
	.cfi_offset 27, -20
	.cfi_offset 26, -24
.LVL27:
.LBB670:
.LBB671:
.LBB672:
	.loc 4 105 0
	cmpwi 7,3,0
	beq- 7,.L35
	lwz 0,-4(3)
	stw 0,0(3)
.L35:
.LBE672:
.LBE671:
	.loc 6 308 0
	addi 0,3,-4
	.loc 6 304 0
	addi 9,3,4
.LBB673:
.LBB675:
.LBB677:
.LBB679:
.LBB681:
.LBB683:
	.file 7 "/opt/devkitpro/devkitPPC/lib/gcc/powerpc-eabi/4.5.1/../../../../powerpc-eabi/include/c++/4.5.1/bits/stl_algobase.h"
	.loc 7 579 0
	subf 0,30,0
.LBE683:
.LBE681:
.LBE679:
.LBE677:
.LBE675:
.LBE673:
	.loc 6 304 0
	stw 9,4(31)
.LBB694:
.LBB692:
.LBB690:
.LBB688:
.LBB686:
.LBB684:
	.loc 7 580 0
	srawi. 0,0,2
.LBE684:
.LBE686:
.LBE688:
.LBE690:
.LBE692:
.LBE694:
	.loc 6 306 0
	lwz 31,0(5)
.LVL28:
.LBB695:
.LBB674:
.LBB676:
.LBB678:
.LBB680:
.LBB682:
	.loc 7 580 0
	bne- 0,.L50
.LVL29:
.L36:
.LBE682:
.LBE680:
.LBE678:
.LBE676:
.LBE674:
.LBE695:
.LBE670:
.LBE701:
	.loc 6 368 0
	lwz 0,44(1)
.LBB702:
.LBB697:
	.loc 6 312 0
	stw 31,0(30)
.LBE697:
.LBE702:
	.loc 6 368 0
	mtlr 0
	lwz 26,16(1)
	lwz 27,20(1)
	lwz 28,24(1)
	lwz 29,28(1)
	lwz 30,32(1)
.LVL30:
	lwz 31,36(1)
.LVL31:
	addi 1,1,40
	.cfi_remember_state
.LCFI11:
	.cfi_def_cfa_offset 0
	.cfi_restore 31
	.cfi_restore 30
	.cfi_restore 29
	.cfi_restore 28
	.cfi_restore 27
	.cfi_restore 26
	blr
.LVL32:
.L50:
.LCFI12:
	.cfi_restore_state
.LBB703:
.LBB669:
.LBB696:
.LBB693:
.LBB691:
.LBB689:
.LBB687:
.LBB685:
	.loc 7 581 0
	slwi 5,0,2
.LVL33:
	mr 4,30
	subf 3,5,3
.LVL34:
	bl memmove
.LVL35:
	b .L36
.LVL36:
.L34:
.LBE685:
.LBE687:
.LBE689:
.LBE691:
.LBE693:
.LBE696:
	.loc 2 38 0
	lwz 4,0(31)
.LVL37:
.LBE669:
.LBB579:
.LBB655:
.LBB656:
.LBB659:
.LBB660:
	.loc 3 534 0
	subf 3,4,3
.LBE660:
.LBE659:
.LBB657:
.LBB658:
	.loc 7 214 0
	srawi. 3,3,2
	beq- 0,.L38
.LBE658:
.LBE657:
	.loc 3 1143 0
	slwi 9,3,1
.LVL38:
	.loc 3 1144 0
	cmplw 7,3,9
	ble- 7,.L51
.L39:
.LVL39:
.LBE656:
.LBE655:
.LBB649:
.LBB652:
	.loc 5 865 0
	subf 4,4,30
.LBE652:
.LBE649:
	.loc 6 321 0
	li 26,-4
.LBB648:
.LBB651:
	.loc 5 865 0
	srawi 28,4,2
.LVL40:
.L45:
.LBE651:
.LBE648:
.LBB641:
.LBB643:
.LBB644:
.LBB645:
	.loc 4 89 0
	mr 3,26
	stw 5,8(1)
	bl _Znwj
.LVL41:
	lwz 4,0(31)
	lwz 5,8(1)
	mr 29,3
	subf 0,4,30
.L40:
.LVL42:
.LBE645:
.LBE644:
.LBE643:
.LBE641:
	.loc 6 330 0
	slwi 28,28,2
.LVL43:
	add 9,29,28
.LBB639:
.LBB640:
	.loc 4 105 0
	cmpwi 7,9,0
	beq- 7,.L41
	lwz 9,0(5)
	stwx 9,29,28
.L41:
.LVL44:
.LBE640:
.LBE639:
.LBB618:
.LBB619:
.LBB620:
.LBB621:
.LBB622:
.LBB623:
.LBB624:
.LBB625:
.LBB626:
.LBB627:
.LBB628:
	.loc 7 385 0
	srawi. 0,0,2
.LVL45:
	li 28,0
	beq+ 0,.L42
	.loc 7 386 0
	slwi 28,0,2
	mr 3,29
	mr 5,28
.LVL46:
	bl memmove
.LVL47:
.L42:
.LBE628:
.LBE627:
.LBE626:
.LBE625:
.LBE624:
.LBE623:
.LBE622:
.LBE621:
.LBE620:
.LBE619:
.LBE618:
.LBB587:
.LBB589:
.LBB591:
.LBB593:
.LBB595:
.LBB597:
.LBB599:
.LBB601:
.LBB603:
.LBB605:
.LBB607:
	.loc 7 384 0
	lwz 0,4(31)
.LBE607:
.LBE605:
.LBE603:
.LBE601:
.LBE599:
.LBE597:
.LBE595:
.LBE593:
.LBE591:
.LBE589:
.LBE587:
.LBB586:
.LBB638:
.LBB637:
.LBB636:
.LBB635:
.LBB634:
.LBB633:
.LBB632:
.LBB631:
.LBB630:
.LBB629:
	.loc 7 387 0
	add 28,29,28
.LVL48:
.LBE629:
.LBE630:
.LBE631:
.LBE632:
.LBE633:
.LBE634:
.LBE635:
.LBE636:
.LBE637:
.LBE638:
.LBE586:
	.loc 6 342 0
	addi 27,28,4
.LVL49:
.LBB585:
.LBB588:
.LBB590:
.LBB592:
.LBB594:
.LBB596:
.LBB598:
.LBB600:
.LBB602:
.LBB604:
.LBB606:
	.loc 7 385 0
	li 28,0
	.loc 7 384 0
	subf 0,30,0
	.loc 7 385 0
	srawi. 0,0,2
	beq+ 0,.L43
	.loc 7 386 0
	slwi 28,0,2
	mr 3,27
	mr 4,30
	mr 5,28
	bl memmove
.LVL50:
.L43:
.LBE606:
.LBE604:
.LBE602:
.LBE600:
.LBE598:
.LBE596:
.LBE594:
.LBE592:
.LBE590:
.LBE588:
.LBE585:
	.loc 6 361 0
	lwz 3,0(31)
.LBB584:
.LBB617:
.LBB616:
.LBB615:
.LBB614:
.LBB613:
.LBB612:
.LBB611:
.LBB610:
.LBB609:
.LBB608:
	.loc 7 387 0
	add 28,27,28
.LVL51:
.LBE608:
.LBE609:
.LBE610:
.LBE611:
.LBE612:
.LBE613:
.LBE614:
.LBE615:
.LBE616:
.LBE617:
.LBE584:
.LBB580:
.LBB581:
	.loc 3 145 0
	cmpwi 7,3,0
	beq- 7,.L44
.LVL52:
.LBB582:
.LBB583:
	.loc 4 95 0
	bl _ZdlPv
.LVL53:
.L44:
.LBE583:
.LBE582:
.LBE581:
.LBE580:
.LBE579:
.LBE703:
	.loc 6 368 0
	lwz 0,44(1)
.LBB704:
.LBB698:
	.loc 6 366 0
	add 26,29,26
	.loc 6 364 0
	stw 29,0(31)
.LBE698:
.LBE704:
	.loc 6 368 0
	mtlr 0
.LBB705:
.LBB578:
	.loc 6 365 0
	stw 28,4(31)
	.loc 6 366 0
	stw 26,8(31)
.LBE578:
.LBE705:
	.loc 6 368 0
	lwz 27,20(1)
.LVL54:
	lwz 26,16(1)
	lwz 28,24(1)
	lwz 29,28(1)
.LVL55:
	lwz 30,32(1)
.LVL56:
	lwz 31,36(1)
.LVL57:
	addi 1,1,40
	.cfi_remember_state
	.cfi_restore 26
	.cfi_restore 27
	.cfi_restore 28
	.cfi_restore 29
	.cfi_restore 30
	.cfi_restore 31
.LCFI13:
	.cfi_def_cfa_offset 0
	blr
.LVL58:
.L38:
.LCFI14:
	.cfi_restore_state
.LBB706:
.LBB699:
.LBB662:
.LBB653:
	.loc 5 865 0
	subf 4,4,30
.LBE653:
.LBE662:
	.loc 3 1143 0
	li 9,1
.LBB663:
.LBB650:
	.loc 5 865 0
	srawi 28,4,2
.LVL59:
.L46:
.LBE650:
.LBE663:
.LBB664:
.LBB646:
	.loc 3 140 0
	slwi 26,9,2
	b .L45
.LVL60:
.L51:
.LBE646:
.LBE664:
.LBB665:
.LBB661:
	.loc 3 1144 0
	lis 0,0x3fff
	ori 0,0,65535
	cmplw 7,9,0
	bgt+ 7,.L39
.LVL61:
.LBE661:
.LBE665:
.LBB666:
.LBB642:
	.loc 3 140 0
	cmpwi 7,9,0
.LBE642:
.LBE666:
.LBB667:
.LBB654:
	.loc 5 865 0
	subf 0,4,30
	srawi 28,0,2
.LVL62:
.LBE654:
.LBE667:
.LBB668:
.LBB647:
	.loc 3 140 0
	li 26,0
	li 29,0
	beq+ 7,.L40
	b .L46
.LBE647:
.LBE668:
.LBE699:
.LBE706:
	.cfi_endproc
.LFE505:
	.size	_ZNSt6vectorIP4LineSaIS1_EE13_M_insert_auxEN9__gnu_cxx17__normal_iteratorIPS1_S3_EERKS1_, .-_ZNSt6vectorIP4LineSaIS1_EE13_M_insert_auxEN9__gnu_cxx17__normal_iteratorIPS1_S3_EERKS1_
	.section	".text"
	.align 2
	.globl _ZN4GameC2Eiii
	.type	_ZN4GameC2Eiii, @function
_ZN4GameC2Eiii:
.LFB464:
	.loc 2 11 0
	.cfi_startproc
	.cfi_personality 0x0,__gxx_personality_v0
	.cfi_lsda 0x0,.LLSDA464
.LVL63:
	mflr 0
.LBB728:
.LBB732:
.LBB734:
	.loc 2 18 0
	cmpwi 7,6,0
.LBE734:
.LBE732:
.LBE728:
	.loc 2 11 0
	stwu 1,-80(1)
.LCFI15:
	.cfi_def_cfa_offset 80
.LBB777:
	.loc 2 14 0
	lis 9,_ZTV4Game+8@ha
	la 9,_ZTV4Game+8@l(9)
.LBE777:
	.loc 2 11 0
	stw 0,84(1)
.LBB778:
.LBB767:
.LBB768:
.LBB769:
.LBB770:
	.loc 3 81 0
	li 0,0
.LBE770:
.LBE769:
.LBE768:
.LBE767:
.LBE778:
	.loc 2 11 0
	stw 25,52(1)
.LBB779:
.LBB731:
	.loc 2 16 0
	addi 25,4,1
	.cfi_offset 25, -28
	.cfi_offset 65, 4
.LBE731:
.LBE779:
	.loc 2 11 0
	stw 31,76(1)
	mr 31,3
	.cfi_offset 31, -4
	stw 26,56(1)
.LBB780:
.LBB774:
	.loc 2 16 0
	divw 25,25,6
.LBE774:
.LBE780:
	.loc 2 11 0
	stw 20,32(1)
	mr 26,6
	.cfi_offset 20, -48
	.cfi_offset 26, -24
	stw 21,36(1)
	stw 22,40(1)
	stw 23,44(1)
	stw 24,48(1)
	stw 27,60(1)
	stw 28,64(1)
	stw 29,68(1)
	stw 30,72(1)
.LBB781:
	.loc 2 14 0
	stw 9,0(3)
	stw 6,4(31)
	stw 4,8(3)
	stw 5,12(3)
.LVL64:
.LBB730:
.LBB773:
.LBB772:
.LBB771:
	.loc 3 81 0
	stw 0,16(3)
	stw 0,20(3)
	stw 0,24(3)
.LBE771:
.LBE772:
.LBE773:
.LBE730:
.LBB729:
.LBB765:
	.loc 2 18 0
	ble- 7,.L52
	.cfi_offset 30, -8
	.cfi_offset 29, -12
	.cfi_offset 28, -16
	.cfi_offset 27, -20
	.cfi_offset 24, -32
	.cfi_offset 23, -36
	.cfi_offset 22, -40
	.cfi_offset 21, -44
	lis 27,_ZTV5PointIiE+8@ha
	srawi 24,5,1
	addze 24,24
	li 29,0
	.loc 2 17 0
	li 30,0
	la 27,_ZTV5PointIiE+8@l(27)
.LBB736:
	.loc 2 21 0
	addi 23,1,12
	.loc 2 22 0
	addi 22,3,16
.LBB741:
.LBB745:
	.loc 3 749 0
	addi 21,1,24
	addi 20,1,8
	b .L58
.LVL65:
.L67:
.LBB746:
.LBB747:
	.loc 4 105 0
	cmpwi 7,9,0
	beq- 7,.L56
	stw 28,0(9)
.L56:
.LBE747:
.LBE746:
.LBE745:
.LBE741:
.LBE736:
	.loc 2 18 0
	addi 29,29,1
.LVL66:
.LBB761:
.LBB751:
.LBB744:
	.loc 3 746 0
	addi 9,9,4
.LVL67:
.LBE744:
.LBE751:
.LBE761:
	.loc 2 18 0
	cmpw 7,26,29
.LBB762:
.LBB740:
.LBB748:
	.loc 3 746 0
	stw 9,20(31)
.LBE748:
.LBE740:
.LBE762:
	.loc 2 18 0
	ble- 7,.L52
.LVL68:
.L58:
	.loc 2 11 0
	add 30,30,25
.LVL69:
.LBB763:
	.loc 2 21 0
	li 3,24
.LBB752:
.LBB753:
	.loc 1 15 0
	stw 27,12(1)
	stw 30,16(1)
	stw 24,20(1)
.LEHB0:
.LBE753:
.LBE752:
	.loc 2 21 0
	bl _Znwj
.LEHE0:
	mr 4,23
	mr 28,3
.LEHB1:
	bl _ZN4LineC1E5PointIiE
.LEHE1:
.LBB754:
.LBB743:
	.loc 3 743 0 discriminator 2
	lwz 9,20(31)
	lwz 0,24(31)
.LBE743:
.LBE754:
	.loc 2 21 0 discriminator 2
	stw 28,8(1)
.LVL70:
.LBB755:
.LBB749:
	.loc 3 743 0 discriminator 2
	cmpw 7,9,0
.LBE749:
.LBE755:
.LBB756:
.LBB757:
.LBB758:
	.loc 1 16 0 discriminator 2
	stw 27,12(1)
.LVL71:
.LBE758:
.LBE757:
.LBE756:
.LBB759:
.LBB742:
	.loc 3 743 0 discriminator 2
	bne+ 7,.L67
	.loc 3 749 0
	mr 3,22
	mr 4,21
	mr 5,20
	stw 9,24(1)
.LBE742:
.LBE759:
	.loc 2 22 0
	mr 28,22
.LEHB2:
.LBB760:
.LBB750:
	.loc 3 749 0
	bl _ZNSt6vectorIP4LineSaIS1_EE13_M_insert_auxEN9__gnu_cxx17__normal_iteratorIPS1_S3_EERKS1_
.LEHE2:
.LBE750:
.LBE760:
.LBE763:
	.loc 2 18 0
	addi 29,29,1
.LVL72:
	cmpw 7,26,29
	bgt+ 7,.L58
.LVL73:
.L52:
.LBE765:
.LBE729:
.LBE781:
	.loc 2 24 0
	lwz 0,84(1)
	lwz 20,32(1)
	mtlr 0
	lwz 21,36(1)
	lwz 22,40(1)
	lwz 23,44(1)
	lwz 24,48(1)
	lwz 25,52(1)
.LVL74:
	lwz 26,56(1)
.LVL75:
	lwz 27,60(1)
	lwz 28,64(1)
	lwz 29,68(1)
	lwz 30,72(1)
	lwz 31,76(1)
.LVL76:
	addi 1,1,80
	.cfi_remember_state
.LCFI16:
	.cfi_def_cfa_offset 0
	.cfi_restore 31
	.cfi_restore 30
	.cfi_restore 29
	.cfi_restore 28
	.cfi_restore 27
	.cfi_restore 26
	.cfi_restore 25
	.cfi_restore 24
	.cfi_restore 23
	.cfi_restore 22
	.cfi_restore 21
	.cfi_restore 20
	blr
.LVL77:
.L63:
.L60:
.LCFI17:
	.cfi_restore_state
.LBB782:
.LBB775:
.LBB733:
.LBB735:
.LBB737:
.LBB738:
.LBB739:
	.loc 1 16 0
	stw 27,12(1)
	mr 30,3
	addi 28,31,16
.LVL78:
.L62:
.LBE739:
.LBE738:
.LBE737:
.LBE735:
.LBE733:
.LBE775:
	.loc 2 14 0
	mr 3,28
	bl _ZNSt6vectorIP4LineSaIS1_EED1Ev
	mr 3,30
.LEHB3:
	bl _Unwind_Resume
.LEHE3:
.LVL79:
.L65:
	mr 30,3
.LVL80:
	b .L62
.LVL81:
.L64:
	mr 30,3
.LVL82:
.LBB776:
.LBB766:
.LBB764:
	.loc 2 21 0
	mr 3,28
	bl _ZdlPv
	mr 3,30
	b .L60
.LBE764:
.LBE766:
.LBE776:
.LBE782:
	.cfi_endproc
.LFE464:
	.size	_ZN4GameC2Eiii, .-_ZN4GameC2Eiii
	.globl __gxx_personality_v0
	.section	.gcc_except_table,"a",@progbits
.LLSDA464:
	.byte	0xff
	.byte	0xff
	.byte	0x1
	.uleb128 .LLSDACSE464-.LLSDACSB464
.LLSDACSB464:
	.uleb128 .LEHB0-.LFB464
	.uleb128 .LEHE0-.LEHB0
	.uleb128 .L63-.LFB464
	.uleb128 0x0
	.uleb128 .LEHB1-.LFB464
	.uleb128 .LEHE1-.LEHB1
	.uleb128 .L64-.LFB464
	.uleb128 0x0
	.uleb128 .LEHB2-.LFB464
	.uleb128 .LEHE2-.LEHB2
	.uleb128 .L65-.LFB464
	.uleb128 0x0
	.uleb128 .LEHB3-.LFB464
	.uleb128 .LEHE3-.LEHB3
	.uleb128 0x0
	.uleb128 0x0
.LLSDACSE464:
	.section	".text"
	.globl _ZN4GameC1Eiii
	.set	_ZN4GameC1Eiii,_ZN4GameC2Eiii
	.weak	_ZTV4Game
	.section	.rodata._ZTV4Game,"aG",@progbits,_ZTV4Game,comdat
	.align 3
	.type	_ZTV4Game, @object
	.size	_ZTV4Game, 16
_ZTV4Game:
	.long	0
	.long	_ZTI4Game
	.long	_ZN4GameD1Ev
	.long	_ZN4GameD0Ev
	.weak	_ZTS4Game
	.section	.sdata._ZTS4Game,"awG",@progbits,_ZTS4Game,comdat
	.align 2
	.type	_ZTS4Game, @object
	.size	_ZTS4Game, 6
_ZTS4Game:
	.string	"4Game"
	.weak	_ZTI4Game
	.section	.sdata._ZTI4Game,"awG",@progbits,_ZTI4Game,comdat
	.align 2
	.type	_ZTI4Game, @object
	.size	_ZTI4Game, 8
_ZTI4Game:
	.long	_ZTVN10__cxxabiv117__class_type_infoE+8
	.long	_ZTS4Game
	.weak	_ZTV5PointIiE
	.section	.rodata._ZTV5PointIiE,"aG",@progbits,_ZTV5PointIiE,comdat
	.align 3
	.type	_ZTV5PointIiE, @object
	.size	_ZTV5PointIiE, 16
_ZTV5PointIiE:
	.long	0
	.long	_ZTI5PointIiE
	.long	_ZN5PointIiED1Ev
	.long	_ZN5PointIiED0Ev
	.weak	_ZTI5PointIiE
	.section	.sdata._ZTI5PointIiE,"awG",@progbits,_ZTI5PointIiE,comdat
	.align 2
	.type	_ZTI5PointIiE, @object
	.size	_ZTI5PointIiE, 8
_ZTI5PointIiE:
	.long	_ZTVN10__cxxabiv117__class_type_infoE+8
	.long	_ZTS5PointIiE
	.weak	_ZTS5PointIiE
	.section	.rodata._ZTS5PointIiE,"aG",@progbits,_ZTS5PointIiE,comdat
	.align 2
	.type	_ZTS5PointIiE, @object
	.size	_ZTS5PointIiE, 10
_ZTS5PointIiE:
	.string	"5PointIiE"
	.section	".text"
.Letext0: